; Function Attrs: mustprogress nounwind uwtable
define noundef i32 @_ZN7RarTime6GetDosEv(ptr noundef nonnull readonly align 8 captures(none) dereferenceable(8) %0) local_unnamed_addr #0 align 2 {
  %2 = alloca i64, align 8
  call void @llvm.lifetime.start.p0(i64 8, ptr nonnull %2) #13
  %3 = load i64, ptr %0, align 8, !tbaa !3
  %4 = add i64 %3, 6802270473709551616
  %5 = udiv i64 %4, 1000000000
  store i64 %5, ptr %2, align 8, !tbaa !8
  %6 = call ptr @localtime(ptr noundef nonnull %2) #13
  %7 = getelementptr inbounds nuw i8, ptr %6, i64 20
  %8 = load i32, ptr %7, align 4, !tbaa !9
  %9 = getelementptr inbounds nuw i8, ptr %6, i64 16
  %10 = load i32, ptr %9, align 8, !tbaa !16
  %11 = getelementptr inbounds nuw i8, ptr %6, i64 12
  %12 = load i32, ptr %11, align 4, !tbaa !18
  %13 = getelementptr inbounds nuw i8, ptr %6, i64 8
  %14 = load i32, ptr %13, align 8, !tbaa !20
  %15 = getelementptr inbounds nuw i8, ptr %6, i64 4
  %16 = load i32, ptr %15, align 4, !tbaa !22
  %17 = load i32, ptr %6, align 8, !tbaa !24
  call void @llvm.lifetime.end.p0(i64 8, ptr nonnull %2) #13
  %18 = lshr i32 %17, 1
  %19 = shl i32 %16, 5
  %20 = shl i32 %14, 11
  %21 = shl i32 %12, 16
  %22 = shl i32 %10, 21
  %23 = add i32 %22, 2097152
  %24 = shl i32 %8, 25
  %25 = add i32 %24, 1610612736
  %26 = or i32 %21, %25
  %27 = or i32 %26, %23
  %28 = or i32 %27, %20
  %29 = or i32 %28, %19
  %30 = or i32 %29, %18
  ret i32 %30
}